; ModuleID = '28/2034.c'
source_filename = "28/2034.c"
target datalayout = "e-m:e-p270:32:32-p271:32:32-p272:64:64-i64:64-f80:128-n8:16:32:64-S128"
target triple = "x86_64-pc-linux-gnu"

@.str = private unnamed_addr constant [3 x i8] c"%d\00", align 1
@.str.1 = private unnamed_addr constant [4 x i8] c",%d\00", align 1

; Function Attrs: noinline nounwind uwtable
define dso_local i32 @main() #0 {
  %1 = alloca i32, align 4
  %2 = alloca [500 x i32], align 16
  %3 = alloca i32, align 4
  %4 = alloca i32, align 4
  %5 = alloca i32, align 4
  %6 = alloca [10000 x i8], align 16
  store i32 0, i32* %1, align 4
  %7 = bitcast [500 x i32]* %2 to i8*
  call void @llvm.memset.p0i8.i64(i8* align 16 %7, i8 0, i64 2000, i1 false)
  %8 = getelementptr inbounds [10000 x i8], [10000 x i8]* %6, i64 0, i64 0
  %9 = call i32 (i8*, ...) bitcast (i32 (...)* @gets to i32 (i8*, ...)*)(i8* %8)
  store i32 0, i32* %4, align 4
  store i32 0, i32* %3, align 4
  br label %10

10:                                               ; preds = %37, %0
  %11 = load i32, i32* %3, align 4
  %12 = sext i32 %11 to i64
  %13 = getelementptr inbounds [10000 x i8], [10000 x i8]* %6, i64 0, i64 %12
  %14 = load i8, i8* %13, align 1
  %15 = sext i8 %14 to i32
  %16 = icmp ne i32 %15, 0
  br i1 %16, label %17, label %40

17:                                               ; preds = %10
  %18 = load i32, i32* %3, align 4
  %19 = sext i32 %18 to i64
  %20 = getelementptr inbounds [10000 x i8], [10000 x i8]* %6, i64 0, i64 %19
  %21 = load i8, i8* %20, align 1
  %22 = sext i8 %21 to i32
  %23 = icmp ne i32 %22, 32
  br i1 %23, label %24, label %30

24:                                               ; preds = %17
  %25 = load i32, i32* %4, align 4
  %26 = sext i32 %25 to i64
  %27 = getelementptr inbounds [500 x i32], [500 x i32]* %2, i64 0, i64 %26
  %28 = load i32, i32* %27, align 4
  %29 = add nsw i32 %28, 1
  store i32 %29, i32* %27, align 4
  br label %36

30:                                               ; preds = %17
  %31 = load i32, i32* %4, align 4
  %32 = add nsw i32 %31, 1
  store i32 %32, i32* %4, align 4
  %33 = load i32, i32* %4, align 4
  %34 = sext i32 %33 to i64
  %35 = getelementptr inbounds [500 x i32], [500 x i32]* %2, i64 0, i64 %34
  store i32 0, i32* %35, align 4
  br label %36

36:                                               ; preds = %30, %24
  br label %37

37:                                               ; preds = %36
  %38 = load i32, i32* %3, align 4
  %39 = add nsw i32 %38, 1
  store i32 %39, i32* %3, align 4
  br label %10

40:                                               ; preds = %10
  store i32 0, i32* %5, align 4
  br label %41

41:                                               ; preds = %76, %40
  %42 = load i32, i32* %5, align 4
  %43 = load i32, i32* %4, align 4
  %44 = icmp sle i32 %42, %43
  br i1 %44, label %45, label %79

45:                                               ; preds = %41
  %46 = load i32, i32* %5, align 4
  %47 = icmp eq i32 %46, 0
  br i1 %47, label %48, label %60

48:                                               ; preds = %45
  %49 = load i32, i32* %5, align 4
  %50 = sext i32 %49 to i64
  %51 = getelementptr inbounds [500 x i32], [500 x i32]* %2, i64 0, i64 %50
  %52 = load i32, i32* %51, align 4
  %53 = icmp ne i32 %52, 0
  br i1 %53, label %54, label %60

54:                                               ; preds = %48
  %55 = load i32, i32* %5, align 4
  %56 = sext i32 %55 to i64
  %57 = getelementptr inbounds [500 x i32], [500 x i32]* %2, i64 0, i64 %56
  %58 = load i32, i32* %57, align 4
  %59 = call i32 (i8*, ...) @printf(i8* getelementptr inbounds ([3 x i8], [3 x i8]* @.str, i64 0, i64 0), i32 %58)
  br label %60

60:                                               ; preds = %54, %48, %45
  %61 = load i32, i32* %5, align 4
  %62 = icmp sgt i32 %61, 0
  br i1 %62, label %63, label %75

63:                                               ; preds = %60
  %64 = load i32, i32* %5, align 4
  %65 = sext i32 %64 to i64
  %66 = getelementptr inbounds [500 x i32], [500 x i32]* %2, i64 0, i64 %65
  %67 = load i32, i32* %66, align 4
  %68 = icmp ne i32 %67, 0
  br i1 %68, label %69, label %75

69:                                               ; preds = %63
  %70 = load i32, i32* %5, align 4
  %71 = sext i32 %70 to i64
  %72 = getelementptr inbounds [500 x i32], [500 x i32]* %2, i64 0, i64 %71
  %73 = load i32, i32* %72, align 4
  %74 = call i32 (i8*, ...) @printf(i8* getelementptr inbounds ([4 x i8], [4 x i8]* @.str.1, i64 0, i64 0), i32 %73)
  br label %75

75:                                               ; preds = %69, %63, %60
  br label %76

76:                                               ; preds = %75
  %77 = load i32, i32* %5, align 4
  %78 = add nsw i32 %77, 1
  store i32 %78, i32* %5, align 4
  br label %41

79:                                               ; preds = %41
  ret i32 0
}

; Function Attrs: argmemonly nounwind willreturn
declare void @llvm.memset.p0i8.i64(i8* nocapture writeonly, i8, i64, i1 immarg) #1

declare dso_local i32 @gets(...) #2

declare dso_local i32 @printf(i8*, ...) #2


!llvm.module.flags = !{!0}
!llvm.ident = !{!1}

!0 = !{i32 1, !"wchar_size", i32 4}
!1 = !{!"clang version 10.0.0-4ubuntu1 "}
